
program.debug.elf:     file format elf32-littleriscv


Disassembly of section .text:

00000000 <crt>:

.global crt
.section .text.prologue, "ax"
.align 4
crt:
	nop
   0:	00000013          	addi	zero,zero,0
	la ra, exit
   4:	00000097          	auipc	ra,0x0
   8:	09c08093          	addi	ra,ra,156 # a0 <exit>
	la sp, _sp
   c:	00010117          	auipc	sp,0x10
  10:	ff410113          	addi	sp,sp,-12 # 10000 <_sp>
	mv s0, sp
  14:	00010413          	addi	s0,sp,0
	la gp, __global_pointer$
  18:	00001197          	auipc	gp,0x1
  1c:	c6818193          	addi	gp,gp,-920 # c80 <__global_pointer$>
	li tp, 0
  20:	00000213          	addi	tp,zero,0
	li t0, 0
  24:	00000293          	addi	t0,zero,0
	li t1, 0
  28:	00000313          	addi	t1,zero,0
	li t2, 0
  2c:	00000393          	addi	t2,zero,0
	li s1, 0
  30:	00000493          	addi	s1,zero,0
	li a0, 0
  34:	00000513          	addi	a0,zero,0
	li a1, 0
  38:	00000593          	addi	a1,zero,0
	li a2, 0
  3c:	00000613          	addi	a2,zero,0
	li a3, 0
  40:	00000693          	addi	a3,zero,0
	li a4, 0
  44:	00000713          	addi	a4,zero,0
	li a5, 0
  48:	00000793          	addi	a5,zero,0
	li a6, 0
  4c:	00000813          	addi	a6,zero,0
	li a7, 0
  50:	00000893          	addi	a7,zero,0
	li s2, 0
  54:	00000913          	addi	s2,zero,0
	li s3, 0
  58:	00000993          	addi	s3,zero,0
	li s4, 0
  5c:	00000a13          	addi	s4,zero,0
	li s5, 0
  60:	00000a93          	addi	s5,zero,0
	li s6, 0
  64:	00000b13          	addi	s6,zero,0
	li s7, 0
  68:	00000b93          	addi	s7,zero,0
	li s8, 0
  6c:	00000c13          	addi	s8,zero,0
	li s9, 0
  70:	00000c93          	addi	s9,zero,0
	li s10, 0
  74:	00000d13          	addi	s10,zero,0
	li s11, 0
  78:	00000d93          	addi	s11,zero,0
	li t3, 0
  7c:	00000e13          	addi	t3,zero,0
	li t4, 0
  80:	00000e93          	addi	t4,zero,0
	li t5, 0
  84:	00000f13          	addi	t5,zero,0
	li t6, 0
  88:	00000f93          	addi	t6,zero,0
	j main
  8c:	3840006f          	jal	zero,410 <main>
	...

000000a0 <exit>:

.global exit
.section .text
.align 4
exit:
	la sp, _sp
  a0:	00010117          	auipc	sp,0x10
  a4:	f6010113          	addi	sp,sp,-160 # 10000 <_sp>
	sw a0, -8(sp)
  a8:	fea12c23          	sw	a0,-8(sp)
	nop
  ac:	00000013          	addi	zero,zero,0
	wfi
  b0:	10500073          	wfi

000000b4 <isSafe>:

int solveKTUtil(int x, int y, int movei, int sol[N][N],int xMove[],  int yMove[]);

/* A utility function to check if i,j are valid indexes
   for N*N chessboard */
int isSafe(int x, int y, int sol[N][N]) {
  b4:	fe010113          	addi	sp,sp,-32
  b8:	00812e23          	sw	s0,28(sp)
  bc:	02010413          	addi	s0,sp,32
  c0:	fea42623          	sw	a0,-20(s0)
  c4:	feb42423          	sw	a1,-24(s0)
  c8:	fec42223          	sw	a2,-28(s0)
    return ( x >= 0 && x < N && y >= 0 && y < N && sol[x][y] == -1);
  cc:	fec42783          	lw	a5,-20(s0)
  d0:	0607c263          	blt	a5,zero,134 <isSafe+0x80>
  d4:	fec42703          	lw	a4,-20(s0)
  d8:	00200793          	addi	a5,zero,2
  dc:	04e7cc63          	blt	a5,a4,134 <isSafe+0x80>
  e0:	fe842783          	lw	a5,-24(s0)
  e4:	0407c863          	blt	a5,zero,134 <isSafe+0x80>
  e8:	fe842703          	lw	a4,-24(s0)
  ec:	00200793          	addi	a5,zero,2
  f0:	04e7c263          	blt	a5,a4,134 <isSafe+0x80>
  f4:	fec42703          	lw	a4,-20(s0)
  f8:	00070793          	addi	a5,a4,0
  fc:	00179793          	slli	a5,a5,0x1
 100:	00e787b3          	add	a5,a5,a4
 104:	00279793          	slli	a5,a5,0x2
 108:	00078713          	addi	a4,a5,0
 10c:	fe442783          	lw	a5,-28(s0)
 110:	00e78733          	add	a4,a5,a4
 114:	fe842783          	lw	a5,-24(s0)
 118:	00279793          	slli	a5,a5,0x2
 11c:	00f707b3          	add	a5,a4,a5
 120:	0007a703          	lw	a4,0(a5)
 124:	fff00793          	addi	a5,zero,-1
 128:	00f71663          	bne	a4,a5,134 <isSafe+0x80>
 12c:	00100793          	addi	a5,zero,1
 130:	0080006f          	jal	zero,138 <isSafe+0x84>
 134:	00000793          	addi	a5,zero,0
}
 138:	00078513          	addi	a0,a5,0
 13c:	01c12403          	lw	s0,28(sp)
 140:	02010113          	addi	sp,sp,32
 144:	00008067          	jalr	zero,0(ra)

00000148 <solveKT>:
   Backtracking.  This function mainly uses solveKTUtil()
   to solve the problem. It returns false if no complete
   tour is possible, otherwise return true and prints the
   tour.
*/
int solveKT() {
 148:	f8010113          	addi	sp,sp,-128
 14c:	06112e23          	sw	ra,124(sp)
 150:	06812c23          	sw	s0,120(sp)
 154:	08010413          	addi	s0,sp,128
    int sol[N][N];

    /* Initialization of solution matrix */
    for (int x = 0; x < N; x++)
 158:	fe042623          	sw	zero,-20(s0)
 15c:	05c0006f          	jal	zero,1b8 <solveKT+0x70>
        for (int y = 0; y < N; y++)
 160:	fe042423          	sw	zero,-24(s0)
 164:	03c0006f          	jal	zero,1a0 <solveKT+0x58>
            sol[x][y] = -1;
 168:	fec42703          	lw	a4,-20(s0)
 16c:	00070793          	addi	a5,a4,0
 170:	00179793          	slli	a5,a5,0x1
 174:	00e787b3          	add	a5,a5,a4
 178:	fe842703          	lw	a4,-24(s0)
 17c:	00e787b3          	add	a5,a5,a4
 180:	00279793          	slli	a5,a5,0x2
 184:	ff040713          	addi	a4,s0,-16
 188:	00f707b3          	add	a5,a4,a5
 18c:	fff00713          	addi	a4,zero,-1
 190:	fce7aa23          	sw	a4,-44(a5)
        for (int y = 0; y < N; y++)
 194:	fe842783          	lw	a5,-24(s0)
 198:	00178793          	addi	a5,a5,1
 19c:	fef42423          	sw	a5,-24(s0)
 1a0:	fe842703          	lw	a4,-24(s0)
 1a4:	00200793          	addi	a5,zero,2
 1a8:	fce7d0e3          	bge	a5,a4,168 <solveKT+0x20>
    for (int x = 0; x < N; x++)
 1ac:	fec42783          	lw	a5,-20(s0)
 1b0:	00178793          	addi	a5,a5,1
 1b4:	fef42623          	sw	a5,-20(s0)
 1b8:	fec42703          	lw	a4,-20(s0)
 1bc:	00200793          	addi	a5,zero,2
 1c0:	fae7d0e3          	bge	a5,a4,160 <solveKT+0x18>

    /* xMove[] and yMove[] define next move of Knight.
       xMove[] is for next value of x coordinate
       yMove[] is for next value of y coordinate */
    int xMove[8] = {  2, 1, -1, -2, -2, -1,  1,  2 };
 1c4:	000007b7          	lui	a5,0x0
 1c8:	48078793          	addi	a5,a5,1152 # 480 <main+0x70>
 1cc:	0007a883          	lw	a7,0(a5)
 1d0:	0047a803          	lw	a6,4(a5)
 1d4:	0087a503          	lw	a0,8(a5)
 1d8:	00c7a583          	lw	a1,12(a5)
 1dc:	0107a603          	lw	a2,16(a5)
 1e0:	0147a683          	lw	a3,20(a5)
 1e4:	0187a703          	lw	a4,24(a5)
 1e8:	01c7a783          	lw	a5,28(a5)
 1ec:	fb142223          	sw	a7,-92(s0)
 1f0:	fb042423          	sw	a6,-88(s0)
 1f4:	faa42623          	sw	a0,-84(s0)
 1f8:	fab42823          	sw	a1,-80(s0)
 1fc:	fac42a23          	sw	a2,-76(s0)
 200:	fad42c23          	sw	a3,-72(s0)
 204:	fae42e23          	sw	a4,-68(s0)
 208:	fcf42023          	sw	a5,-64(s0)
    int yMove[8] = {  1, 2,  2,  1, -1, -2, -2, -1 };
 20c:	000007b7          	lui	a5,0x0
 210:	4a078793          	addi	a5,a5,1184 # 4a0 <main+0x90>
 214:	0007a883          	lw	a7,0(a5)
 218:	0047a803          	lw	a6,4(a5)
 21c:	0087a503          	lw	a0,8(a5)
 220:	00c7a583          	lw	a1,12(a5)
 224:	0107a603          	lw	a2,16(a5)
 228:	0147a683          	lw	a3,20(a5)
 22c:	0187a703          	lw	a4,24(a5)
 230:	01c7a783          	lw	a5,28(a5)
 234:	f9142223          	sw	a7,-124(s0)
 238:	f9042423          	sw	a6,-120(s0)
 23c:	f8a42623          	sw	a0,-116(s0)
 240:	f8b42823          	sw	a1,-112(s0)
 244:	f8c42a23          	sw	a2,-108(s0)
 248:	f8d42c23          	sw	a3,-104(s0)
 24c:	f8e42e23          	sw	a4,-100(s0)
 250:	faf42023          	sw	a5,-96(s0)

    // Since the Knight is initially at the first block
    sol[0][0]  = 0;
 254:	fc042223          	sw	zero,-60(s0)

    /* Start from 0,0 and explore all tours using
       solveKTUtil() */
    if (solveKTUtil(0, 0, 1, sol, xMove, yMove) == 0) {
 258:	f8440793          	addi	a5,s0,-124
 25c:	fa440713          	addi	a4,s0,-92
 260:	fc440693          	addi	a3,s0,-60
 264:	00100613          	addi	a2,zero,1
 268:	00000593          	addi	a1,zero,0
 26c:	00000513          	addi	a0,zero,0
 270:	00000097          	auipc	ra,0x0
 274:	030080e7          	jalr	ra,48(ra) # 2a0 <solveKTUtil>
 278:	00050793          	addi	a5,a0,0
 27c:	00079663          	bne	a5,zero,288 <solveKT+0x140>
        //printf("Solution does not exist");
        return 0;
 280:	00000793          	addi	a5,zero,0
 284:	0080006f          	jal	zero,28c <solveKT+0x144>
    }
    else
        //printSolution(sol);

    return 1;
 288:	00100793          	addi	a5,zero,1
}
 28c:	00078513          	addi	a0,a5,0
 290:	07c12083          	lw	ra,124(sp)
 294:	07812403          	lw	s0,120(sp)
 298:	08010113          	addi	sp,sp,128
 29c:	00008067          	jalr	zero,0(ra)

000002a0 <solveKTUtil>:

/* A recursive utility function to solve Knight Tour
   problem */
int solveKTUtil(int x, int y, int movei, int sol[N][N], int xMove[N], int yMove[N]) {
 2a0:	fc010113          	addi	sp,sp,-64
 2a4:	02112e23          	sw	ra,60(sp)
 2a8:	02812c23          	sw	s0,56(sp)
 2ac:	04010413          	addi	s0,sp,64
 2b0:	fca42e23          	sw	a0,-36(s0)
 2b4:	fcb42c23          	sw	a1,-40(s0)
 2b8:	fcc42a23          	sw	a2,-44(s0)
 2bc:	fcd42823          	sw	a3,-48(s0)
 2c0:	fce42623          	sw	a4,-52(s0)
 2c4:	fcf42423          	sw	a5,-56(s0)
   int k, next_x, next_y;
   if (movei == N*N)
 2c8:	fd442703          	lw	a4,-44(s0)
 2cc:	00900793          	addi	a5,zero,9
 2d0:	00f71663          	bne	a4,a5,2dc <solveKTUtil+0x3c>
       return 1;
 2d4:	00100793          	addi	a5,zero,1
 2d8:	1240006f          	jal	zero,3fc <solveKTUtil+0x15c>

   /* Try all next moves from the current coordinate x, y */
   for (k = 0; k < 8; k++) {
 2dc:	fe042623          	sw	zero,-20(s0)
 2e0:	10c0006f          	jal	zero,3ec <solveKTUtil+0x14c>
       next_x = x + xMove[k];
 2e4:	fec42783          	lw	a5,-20(s0)
 2e8:	00279793          	slli	a5,a5,0x2
 2ec:	fcc42703          	lw	a4,-52(s0)
 2f0:	00f707b3          	add	a5,a4,a5
 2f4:	0007a783          	lw	a5,0(a5)
 2f8:	fdc42703          	lw	a4,-36(s0)
 2fc:	00f707b3          	add	a5,a4,a5
 300:	fef42423          	sw	a5,-24(s0)
       next_y = y + yMove[k];
 304:	fec42783          	lw	a5,-20(s0)
 308:	00279793          	slli	a5,a5,0x2
 30c:	fc842703          	lw	a4,-56(s0)
 310:	00f707b3          	add	a5,a4,a5
 314:	0007a783          	lw	a5,0(a5)
 318:	fd842703          	lw	a4,-40(s0)
 31c:	00f707b3          	add	a5,a4,a5
 320:	fef42223          	sw	a5,-28(s0)
       if (isSafe(next_x, next_y, sol)) {
 324:	fd042603          	lw	a2,-48(s0)
 328:	fe442583          	lw	a1,-28(s0)
 32c:	fe842503          	lw	a0,-24(s0)
 330:	00000097          	auipc	ra,0x0
 334:	d84080e7          	jalr	ra,-636(ra) # b4 <isSafe>
 338:	00050793          	addi	a5,a0,0
 33c:	0a078263          	beq	a5,zero,3e0 <solveKTUtil+0x140>
         sol[next_x][next_y] = movei;
 340:	fe842703          	lw	a4,-24(s0)
 344:	00070793          	addi	a5,a4,0
 348:	00179793          	slli	a5,a5,0x1
 34c:	00e787b3          	add	a5,a5,a4
 350:	00279793          	slli	a5,a5,0x2
 354:	00078713          	addi	a4,a5,0
 358:	fd042783          	lw	a5,-48(s0)
 35c:	00e78733          	add	a4,a5,a4
 360:	fe442783          	lw	a5,-28(s0)
 364:	00279793          	slli	a5,a5,0x2
 368:	00f707b3          	add	a5,a4,a5
 36c:	fd442703          	lw	a4,-44(s0)
 370:	00e7a023          	sw	a4,0(a5)
         if (solveKTUtil(next_x, next_y, movei+1, sol, xMove, yMove) == 1)
 374:	fd442783          	lw	a5,-44(s0)
 378:	00178613          	addi	a2,a5,1
 37c:	fc842783          	lw	a5,-56(s0)
 380:	fcc42703          	lw	a4,-52(s0)
 384:	fd042683          	lw	a3,-48(s0)
 388:	fe442583          	lw	a1,-28(s0)
 38c:	fe842503          	lw	a0,-24(s0)
 390:	00000097          	auipc	ra,0x0
 394:	f10080e7          	jalr	ra,-240(ra) # 2a0 <solveKTUtil>
 398:	00050713          	addi	a4,a0,0
 39c:	00100793          	addi	a5,zero,1
 3a0:	00f71663          	bne	a4,a5,3ac <solveKTUtil+0x10c>
             return 1;
 3a4:	00100793          	addi	a5,zero,1
 3a8:	0540006f          	jal	zero,3fc <solveKTUtil+0x15c>
         else
             sol[next_x][next_y] = -1;// backtracking
 3ac:	fe842703          	lw	a4,-24(s0)
 3b0:	00070793          	addi	a5,a4,0
 3b4:	00179793          	slli	a5,a5,0x1
 3b8:	00e787b3          	add	a5,a5,a4
 3bc:	00279793          	slli	a5,a5,0x2
 3c0:	00078713          	addi	a4,a5,0
 3c4:	fd042783          	lw	a5,-48(s0)
 3c8:	00e78733          	add	a4,a5,a4
 3cc:	fe442783          	lw	a5,-28(s0)
 3d0:	00279793          	slli	a5,a5,0x2
 3d4:	00f707b3          	add	a5,a4,a5
 3d8:	fff00713          	addi	a4,zero,-1
 3dc:	00e7a023          	sw	a4,0(a5)
   for (k = 0; k < 8; k++) {
 3e0:	fec42783          	lw	a5,-20(s0)
 3e4:	00178793          	addi	a5,a5,1
 3e8:	fef42623          	sw	a5,-20(s0)
 3ec:	fec42703          	lw	a4,-20(s0)
 3f0:	00700793          	addi	a5,zero,7
 3f4:	eee7d8e3          	bge	a5,a4,2e4 <solveKTUtil+0x44>
       }
   }

   return 0;
 3f8:	00000793          	addi	a5,zero,0
}
 3fc:	00078513          	addi	a0,a5,0
 400:	03c12083          	lw	ra,60(sp)
 404:	03812403          	lw	s0,56(sp)
 408:	04010113          	addi	sp,sp,64
 40c:	00008067          	jalr	zero,0(ra)

00000410 <main>:

/* Driver program to test above functions */
int main()
{
 410:	ff010113          	addi	sp,sp,-16
 414:	00112623          	sw	ra,12(sp)
 418:	00812423          	sw	s0,8(sp)
 41c:	01010413          	addi	s0,sp,16
    solveKT();
 420:	00000097          	auipc	ra,0x0
 424:	d28080e7          	jalr	ra,-728(ra) # 148 <solveKT>
    return 0;
 428:	00000793          	addi	a5,zero,0
}
 42c:	00078513          	addi	a0,a5,0
 430:	00c12083          	lw	ra,12(sp)
 434:	00812403          	lw	s0,8(sp)
 438:	01010113          	addi	sp,sp,16
 43c:	00008067          	jalr	zero,0(ra)
	...
